target datalayout = "e-m:e-p270:32:32-p271:32:32-p272:64:64-i64:64-i128:128-f80:128-n8:16:32:64-S128"
target triple = "x86_64-pc-linux-gnu"

%struct.RelationData = type { %struct.RelFileLocator, ptr, i32, i32, i8, i8, i8, i8, i8, i32, i32, i32, i32, ptr, ptr, i32, %struct.LockInfoData, ptr, ptr, ptr, ptr, ptr, i8, ptr, ptr, ptr, ptr, ptr, ptr, i32, ptr, i8, ptr, ptr, i32, i8, i32, ptr, i8, ptr, ptr, ptr, ptr, ptr, ptr, ptr, i32, ptr, ptr, ptr, ptr, ptr, ptr, ptr, ptr, ptr, ptr, ptr, ptr, ptr, ptr, ptr, ptr, ptr, ptr, ptr, i32, i8, ptr }
%struct.RelFileLocator = type { i32, i32, i32 }
%struct.LockInfoData = type { %struct.LockRelId }
%struct.LockRelId = type { i32, i32 }
%struct.FormData_pg_class = type { i32, %struct.nameData, i32, i32, i32, i32, i32, i32, i32, i32, float, i32, i32, i8, i8, i8, i8, i16, i16, i8, i8, i8, i8, i8, i8, i8, i8, i32, i32, i32 }
%struct.nameData = type { [64 x i8] }
%struct.Node = type { i32 }
%struct.Expr = type { i32 }
%struct.FormData_pg_attribute = type { i32, %struct.nameData, i32, i16, i16, i32, i16, i8, i8, i8, i8, i8, i8, i8, i8, i8, i8, i8, i16, i32 }
%struct.NextValueExpr = type { %struct.Expr, i32, i32 }
%struct.TupleDescData = type { i32, i32, i32, i32, ptr, [0 x %struct.CompactAttribute] }
%struct.CompactAttribute = type { i32, i16, i8, i8, i8, i8, i8, i8, i8 }

@.str.1 = private unnamed_addr constant [17 x i8] c"rewriteHandler.c\00", align 1
@.str.2 = private unnamed_addr constant [63 x i8] c"default expression not found for attribute %d of relation \22%s\22\00", align 1
@__func__.build_column_default = private unnamed_addr constant [21 x i8] c"build_column_default\00", align 1
@.str.3 = private unnamed_addr constant [63 x i8] c"column \22%s\22 is of type %s but default expression is of type %s\00", align 1
@.str.4 = private unnamed_addr constant [49 x i8] c"You will need to rewrite or cast the expression.\00", align 1

; Function Attrs: inlinehint nounwind uwtable
define internal ptr @newNode(i64 noundef %0, i32 noundef %1) #5 {
  %3 = alloca i64, align 8
  %4 = alloca i32, align 4
  %5 = alloca ptr, align 8
  store i64 %0, ptr %3, align 8
  store i32 %1, ptr %4, align 4
  call void @llvm.lifetime.start.p0(i64 8, ptr %5) #9
  %6 = load i64, ptr %3, align 8
  %7 = call ptr @palloc0(i64 noundef %6)
  store ptr %7, ptr %5, align 8
  %8 = load i32, ptr %4, align 4
  %9 = load ptr, ptr %5, align 8
  %10 = getelementptr inbounds nuw %struct.Node, ptr %9, i32 0, i32 0
  store i32 %8, ptr %10, align 4
  %11 = load ptr, ptr %5, align 8
  call void @llvm.lifetime.end.p0(i64 8, ptr %5) #9
  ret ptr %11
}

; Function Attrs: inlinehint nounwind uwtable
define internal ptr @TupleDescAttr(ptr noundef %0, i32 noundef %1) #5 {
  %3 = alloca ptr, align 8
  %4 = alloca i32, align 4
  %5 = alloca ptr, align 8
  store ptr %0, ptr %3, align 8
  store i32 %1, ptr %4, align 4
  call void @llvm.lifetime.start.p0(i64 8, ptr %5) #9
  %6 = load ptr, ptr %3, align 8
  %7 = load ptr, ptr %3, align 8
  %8 = getelementptr inbounds nuw %struct.TupleDescData, ptr %7, i32 0, i32 0
  %9 = load i32, ptr %8, align 8
  %10 = sext i32 %9 to i64
  %11 = mul i64 %10, 16
  %12 = add i64 24, %11
  %13 = getelementptr inbounds nuw i8, ptr %6, i64 %12
  store ptr %13, ptr %5, align 8
  %14 = load ptr, ptr %5, align 8
  %15 = load i32, ptr %4, align 4
  %16 = sext i32 %15 to i64
  %17 = getelementptr inbounds %struct.FormData_pg_attribute, ptr %14, i64 %16
  call void @llvm.lifetime.end.p0(i64 8, ptr %5) #9
  ret ptr %17
}

; Function Attrs: nounwind uwtable
define dso_local ptr @build_column_default(ptr noundef %0, i32 noundef %1) #0 {
  %3 = alloca ptr, align 8
  %4 = alloca ptr, align 8
  %5 = alloca i32, align 4
  %6 = alloca ptr, align 8
  %7 = alloca ptr, align 8
  %8 = alloca i32, align 4
  %9 = alloca i32, align 4
  %10 = alloca ptr, align 8
  %11 = alloca i32, align 4
  %12 = alloca ptr, align 8
  %13 = alloca i32, align 4
  store ptr %0, ptr %4, align 8
  store i32 %1, ptr %5, align 4
  call void @llvm.lifetime.start.p0(i64 8, ptr %6) #9
  %14 = load ptr, ptr %4, align 8
  %15 = getelementptr inbounds nuw %struct.RelationData, ptr %14, i32 0, i32 14
  %16 = load ptr, ptr %15, align 8
  store ptr %16, ptr %6, align 8
  call void @llvm.lifetime.start.p0(i64 8, ptr %7) #9
  %17 = load ptr, ptr %6, align 8
  %18 = load i32, ptr %5, align 4
  %19 = sub i32 %18, 1
  %20 = call ptr @TupleDescAttr(ptr noundef %17, i32 noundef %19)
  store ptr %20, ptr %7, align 8
  call void @llvm.lifetime.start.p0(i64 4, ptr %8) #9
  %21 = load ptr, ptr %7, align 8
  %22 = getelementptr inbounds nuw %struct.FormData_pg_attribute, ptr %21, i32 0, i32 2
  %23 = load i32, ptr %22, align 4
  store i32 %23, ptr %8, align 4
  call void @llvm.lifetime.start.p0(i64 4, ptr %9) #9
  %24 = load ptr, ptr %7, align 8
  %25 = getelementptr inbounds nuw %struct.FormData_pg_attribute, ptr %24, i32 0, i32 5
  %26 = load i32, ptr %25, align 4
  store i32 %26, ptr %9, align 4
  call void @llvm.lifetime.start.p0(i64 8, ptr %10) #9
  store ptr null, ptr %10, align 8
  call void @llvm.lifetime.start.p0(i64 4, ptr %11) #9
  %27 = load ptr, ptr %7, align 8
  %28 = getelementptr inbounds nuw %struct.FormData_pg_attribute, ptr %27, i32 0, i32 14
  %29 = load i8, ptr %28, align 1
  %30 = icmp ne i8 %29, 0
  br i1 %30, label %31, label %45

31:                                               ; preds = %2
  call void @llvm.lifetime.start.p0(i64 8, ptr %12) #9
  %32 = call ptr @newNode(i64 noundef 12, i32 noundef 59)
  store ptr %32, ptr %12, align 8
  %33 = load ptr, ptr %4, align 8
  %34 = load i32, ptr %5, align 4
  %35 = trunc i32 %34 to i16
  %36 = call i32 @getIdentitySequence(ptr noundef %33, i16 noundef signext %35, i1 noundef zeroext false)
  %37 = load ptr, ptr %12, align 8
  %38 = getelementptr inbounds nuw %struct.NextValueExpr, ptr %37, i32 0, i32 1
  store i32 %36, ptr %38, align 4
  %39 = load ptr, ptr %7, align 8
  %40 = getelementptr inbounds nuw %struct.FormData_pg_attribute, ptr %39, i32 0, i32 2
  %41 = load i32, ptr %40, align 4
  %42 = load ptr, ptr %12, align 8
  %43 = getelementptr inbounds nuw %struct.NextValueExpr, ptr %42, i32 0, i32 2
  store i32 %41, ptr %43, align 4
  %44 = load ptr, ptr %12, align 8
  store ptr %44, ptr %3, align 8
  store i32 1, ptr %13, align 4
  call void @llvm.lifetime.end.p0(i64 8, ptr %12) #9
  br label %124

45:                                               ; preds = %2
  %46 = load ptr, ptr %7, align 8
  %47 = getelementptr inbounds nuw %struct.FormData_pg_attribute, ptr %46, i32 0, i32 12
  %48 = load i8, ptr %47, align 1, !range !4, !noundef !5
  %49 = trunc i8 %48 to i1
  br i1 %49, label %50, label %76

50:                                               ; preds = %45
  %51 = load ptr, ptr %6, align 8
  %52 = load i32, ptr %5, align 4
  %53 = trunc i32 %52 to i16
  %54 = call ptr @TupleDescGetDefault(ptr noundef %51, i16 noundef signext %53)
  store ptr %54, ptr %10, align 8
  %55 = load ptr, ptr %10, align 8
  %56 = icmp eq ptr %55, null
  br i1 %56, label %57, label %75

57:                                               ; preds = %50
  br label %58

58:                                               ; preds = %57
  br i1 true, label %59, label %61

59:                                               ; preds = %58
  %60 = call zeroext i1 @errstart_cold(i32 noundef 21, ptr noundef null) #10
  br i1 %60, label %63, label %72

61:                                               ; preds = %58
  %62 = call zeroext i1 @errstart(i32 noundef 21, ptr noundef null)
  br i1 %62, label %63, label %72

63:                                               ; preds = %61, %59
  %64 = load i32, ptr %5, align 4
  %65 = load ptr, ptr %4, align 8
  %66 = getelementptr inbounds nuw %struct.RelationData, ptr %65, i32 0, i32 13
  %67 = load ptr, ptr %66, align 8
  %68 = getelementptr inbounds nuw %struct.FormData_pg_class, ptr %67, i32 0, i32 1
  %69 = getelementptr inbounds nuw %struct.nameData, ptr %68, i32 0, i32 0
  %70 = getelementptr inbounds [64 x i8], ptr %69, i64 0, i64 0
  %71 = call i32 (ptr, ...) @errmsg_internal(ptr noundef @.str.2, i32 noundef %64, ptr noundef %70)
  call void @errfinish(ptr noundef @.str.1, i32 noundef 1254, ptr noundef @__func__.build_column_default)
  br label %72

72:                                               ; preds = %63, %61, %59
  unreachable

73:                                               ; No predecessors!
  br label %74

74:                                               ; preds = %73
  br label %75

75:                                               ; preds = %74, %50
  br label %76

76:                                               ; preds = %75, %45
  %77 = load ptr, ptr %10, align 8
  %78 = icmp eq ptr %77, null
  br i1 %78, label %79, label %87

79:                                               ; preds = %76
  %80 = load ptr, ptr %7, align 8
  %81 = getelementptr inbounds nuw %struct.FormData_pg_attribute, ptr %80, i32 0, i32 15
  %82 = load i8, ptr %81, align 2
  %83 = icmp ne i8 %82, 0
  br i1 %83, label %87, label %84

84:                                               ; preds = %79
  %85 = load i32, ptr %8, align 4
  %86 = call ptr @get_typdefault(i32 noundef %85)
  store ptr %86, ptr %10, align 8
  br label %87

87:                                               ; preds = %84, %79, %76
  %88 = load ptr, ptr %10, align 8
  %89 = icmp eq ptr %88, null
  br i1 %89, label %90, label %91

90:                                               ; preds = %87
  store ptr null, ptr %3, align 8
  store i32 1, ptr %13, align 4
  br label %124

91:                                               ; preds = %87
  %92 = load ptr, ptr %10, align 8
  %93 = call i32 @exprType(ptr noundef %92)
  store i32 %93, ptr %11, align 4
  %94 = load ptr, ptr %10, align 8
  %95 = load i32, ptr %11, align 4
  %96 = load i32, ptr %8, align 4
  %97 = load i32, ptr %9, align 4
  %98 = call ptr @coerce_to_target_type(ptr noundef null, ptr noundef %94, i32 noundef %95, i32 noundef %96, i32 noundef %97, i32 noundef 1, i32 noundef 2, i32 noundef -1)
  store ptr %98, ptr %10, align 8
  %99 = load ptr, ptr %10, align 8
  %100 = icmp eq ptr %99, null
  br i1 %100, label %101, label %122

101:                                              ; preds = %91
  br label %102

102:                                              ; preds = %101
  br i1 true, label %103, label %105

103:                                              ; preds = %102
  %104 = call zeroext i1 @errstart_cold(i32 noundef 21, ptr noundef null) #10
  br i1 %104, label %107, label %119

105:                                              ; preds = %102
  %106 = call zeroext i1 @errstart(i32 noundef 21, ptr noundef null)
  br i1 %106, label %107, label %119

107:                                              ; preds = %105, %103
  %108 = call i32 @errcode(i32 noundef 67141764)
  %109 = load ptr, ptr %7, align 8
  %110 = getelementptr inbounds nuw %struct.FormData_pg_attribute, ptr %109, i32 0, i32 1
  %111 = getelementptr inbounds nuw %struct.nameData, ptr %110, i32 0, i32 0
  %112 = getelementptr inbounds [64 x i8], ptr %111, i64 0, i64 0
  %113 = load i32, ptr %8, align 4
  %114 = call ptr @format_type_be(i32 noundef %113)
  %115 = load i32, ptr %11, align 4
  %116 = call ptr @format_type_be(i32 noundef %115)
  %117 = call i32 (ptr, ...) @errmsg(ptr noundef @.str.3, ptr noundef %112, ptr noundef %114, ptr noundef %116)
  %118 = call i32 (ptr, ...) @errhint(ptr noundef @.str.4)
  call void @errfinish(ptr noundef @.str.1, i32 noundef 1290, ptr noundef @__func__.build_column_default)
  br label %119

119:                                              ; preds = %107, %105, %103
  unreachable

120:                                              ; No predecessors!
  br label %121

121:                                              ; preds = %120
  br label %122

122:                                              ; preds = %121, %91
  %123 = load ptr, ptr %10, align 8
  store ptr %123, ptr %3, align 8
  store i32 1, ptr %13, align 4
  br label %124

124:                                              ; preds = %122, %90, %31
  call void @llvm.lifetime.end.p0(i64 4, ptr %11) #9
  call void @llvm.lifetime.end.p0(i64 8, ptr %10) #9
  call void @llvm.lifetime.end.p0(i64 4, ptr %9) #9
  call void @llvm.lifetime.end.p0(i64 4, ptr %8) #9
  call void @llvm.lifetime.end.p0(i64 8, ptr %7) #9
  call void @llvm.lifetime.end.p0(i64 8, ptr %6) #9
  %125 = load ptr, ptr %3, align 8
  ret ptr %125
}