; Function Attrs: nounwind uwtable
define dso_local ptr @build_column_default(ptr noundef %0, i32 noundef %1) local_unnamed_addr #0 {
  %3 = getelementptr inbounds nuw i8, ptr %0, i64 64
  %4 = load ptr, ptr %3, align 8
  %5 = add i32 %1, -1
  %6 = load i32, ptr %4, align 8
  %7 = sext i32 %6 to i64
  %8 = shl nsw i64 %7, 4
  %9 = getelementptr i8, ptr %4, i64 %8
  %10 = getelementptr i8, ptr %9, i64 24
  %11 = sext i32 %5 to i64
  %12 = getelementptr inbounds %struct.FormData_pg_attribute, ptr %10, i64 %11
  %13 = getelementptr inbounds nuw i8, ptr %12, i64 68
  %14 = load i32, ptr %13, align 4
  %15 = getelementptr inbounds nuw i8, ptr %12, i64 76
  %16 = load i32, ptr %15, align 4
  %17 = getelementptr inbounds nuw i8, ptr %12, i64 89
  %18 = load i8, ptr %17, align 1
  %.not = icmp eq i8 %18, 0
  br i1 %.not, label %26, label %19

19:                                               ; preds = %2
  %20 = tail call noundef ptr @palloc0(i64 noundef 12) #10
  store i32 59, ptr %20, align 4
  %21 = trunc i32 %1 to i16
  %22 = tail call i32 @getIdentitySequence(ptr noundef nonnull %0, i16 noundef signext %21, i1 noundef zeroext false) #10
  %23 = getelementptr inbounds nuw i8, ptr %20, i64 4
  store i32 %22, ptr %23, align 4
  %24 = load i32, ptr %13, align 4
  %25 = getelementptr inbounds nuw i8, ptr %20, i64 8
  store i32 %24, ptr %25, align 4
  br label %.thread37

26:                                               ; preds = %2
  %27 = getelementptr inbounds nuw i8, ptr %12, i64 87
  %28 = load i8, ptr %27, align 1, !range !4, !noundef !5
  %29 = trunc nuw i8 %28 to i1
  br i1 %29, label %30, label %40

30:                                               ; preds = %26
  %31 = trunc i32 %1 to i16
  %32 = tail call ptr @TupleDescGetDefault(ptr noundef nonnull %4, i16 noundef signext %31) #10
  %33 = icmp eq ptr %32, null
  br i1 %33, label %34, label %.thread39

34:                                               ; preds = %30
  %35 = tail call zeroext i1 @errstart_cold(i32 noundef 21, ptr noundef null) #11
  tail call void @llvm.assume(i1 %35)
  %36 = getelementptr inbounds nuw i8, ptr %0, i64 56
  %37 = load ptr, ptr %36, align 8
  %38 = getelementptr inbounds nuw i8, ptr %37, i64 4
  %39 = tail call i32 (ptr, ...) @errmsg_internal(ptr noundef nonnull @.str.2, i32 noundef %1, ptr noundef nonnull %38) #10
  tail call void @errfinish(ptr noundef nonnull @.str.1, i32 noundef 1254, ptr noundef nonnull @__func__.build_column_default) #10
  unreachable

40:                                               ; preds = %26
  %41 = getelementptr inbounds nuw i8, ptr %12, i64 90
  %42 = load i8, ptr %41, align 2
  %.not35 = icmp eq i8 %42, 0
  br i1 %.not35, label %43, label %.thread37

43:                                               ; preds = %40
  %44 = tail call ptr @get_typdefault(i32 noundef %14) #10
  %45 = icmp eq ptr %44, null
  br i1 %45, label %.thread37, label %.thread39

.thread39:                                        ; preds = %30, %43
  %.141 = phi ptr [ %44, %43 ], [ %32, %30 ]
  %46 = tail call i32 @exprType(ptr noundef nonnull %.141) #10
  %47 = tail call ptr @coerce_to_target_type(ptr noundef null, ptr noundef nonnull %.141, i32 noundef %46, i32 noundef %14, i32 noundef %16, i32 noundef 1, i32 noundef 2, i32 noundef -1) #10
  %48 = icmp eq ptr %47, null
  br i1 %48, label %49, label %.thread37

49:                                               ; preds = %.thread39
  %50 = tail call zeroext i1 @errstart_cold(i32 noundef 21, ptr noundef null) #11
  tail call void @llvm.assume(i1 %50)
  %51 = tail call i32 @errcode(i32 noundef 67141764) #10
  %52 = getelementptr inbounds nuw i8, ptr %12, i64 4
  %53 = tail call ptr @format_type_be(i32 noundef %14) #10
  %54 = tail call ptr @format_type_be(i32 noundef %46) #10
  %55 = tail call i32 (ptr, ...) @errmsg(ptr noundef nonnull @.str.3, ptr noundef nonnull %52, ptr noundef %53, ptr noundef %54) #10
  %56 = tail call i32 (ptr, ...) @errhint(ptr noundef nonnull @.str.4) #10
  tail call void @errfinish(ptr noundef nonnull @.str.1, i32 noundef 1290, ptr noundef nonnull @__func__.build_column_default) #10
  unreachable

.thread37:                                        ; preds = %40, %.thread39, %43, %19
  %.0 = phi ptr [ %20, %19 ], [ null, %43 ], [ %47, %.thread39 ], [ null, %40 ]
  ret ptr %.0
}